; Function Attrs: mustprogress nofree nounwind willreturn memory(read) uwtable
define noundef i32 @_Z19coco_string_indexofPKww(ptr noundef %0, i32 noundef signext %1) local_unnamed_addr #9 {
  %3 = tail call ptr @wcschr(ptr noundef %0, i32 noundef signext %1) #24
  %.not = icmp eq ptr %3, null
  %4 = ptrtoint ptr %3 to i64
  %5 = ptrtoint ptr %0 to i64
  %6 = sub i64 %4, %5
  %7 = lshr exact i64 %6, 2
  %8 = trunc i64 %7 to i32
  %.0 = select i1 %.not, i32 -1, i32 %8
  ret i32 %.0
}